
out.elf:     file format elf32-tradlittlemips


Disassembly of section .config_BFC02FF0:

bfc02ff0 <__config_BFC02FF0>:
bfc02ff0:	ff ff fe fa                                         ....

Disassembly of section .config_BFC02FF4:

bfc02ff4 <__config_BFC02FF4>:
bfc02ff4:	d9 79 f8 ff                                         .y..

Disassembly of section .config_BFC02FF8:

bfc02ff8 <__config_BFC02FF8>:
bfc02ff8:	db ce 6c ff                                         ..l.

Disassembly of section .config_BFC02FFC:

bfc02ffc <__config_BFC02FFC>:
bfc02ffc:	ff ff ff 7e                                         ...~

Disassembly of section .reset:

bd001970 <_reset>:
bd001970:	0f40065e 	jal	bd001978 <_startup>
bd001974:	00000000 	nop

bd001978 <_startup>:
bd001978:	401a6000 	mfc0	k0,c0_status
bd00197c:	7f5a04c0 	ext	k0,k0,0x13,0x1
bd001980:	13400005 	beqz	k0,bd001998 <_no_nmi>
bd001984:	00000000 	nop
bd001988:	3c1a9d00 	lui	k0,0x9d00
bd00198c:	275a26f8 	addiu	k0,k0,9976
bd001990:	03400008 	jr	k0
bd001994:	00000000 	nop

bd001998 <_no_nmi>:
bd001998:	3c1da002 	lui	sp,0xa002
bd00199c:	27bdfff0 	addiu	sp,sp,-16
bd0019a0:	3c1ca000 	lui	gp,0xa000
bd0019a4:	279c7ff0 	addiu	gp,gp,32752
bd0019a8:	40096002 	mfc0	t1,c0_srsctl
bd0019ac:	01205820 	add	t3,t1,zero
bd0019b0:	7d2a1e80 	ext	t2,t1,0x1a,0x4
bd0019b4:	7d494984 	ins	t1,t2,0x6,0x4
bd0019b8:	40896002 	mtc0	t1,c0_srsctl
bd0019bc:	000000c0 	ehb
bd0019c0:	41dce000 	wrpgpr	gp,gp
bd0019c4:	408b6002 	mtc0	t3,c0_srsctl
bd0019c8:	000000c0 	ehb
bd0019cc:	3c089d00 	lui	t0,0x9d00
bd0019d0:	25082710 	addiu	t0,t0,10000
bd0019d4:	0100f809 	jalr	t0
bd0019d8:	00000000 	nop

bd0019dc <_start_bss_init>:
bd0019dc:	3c08a000 	lui	t0,0xa000
bd0019e0:	25080004 	addiu	t0,t0,4
bd0019e4:	3c09a000 	lui	t1,0xa000
bd0019e8:	25290014 	addiu	t1,t1,20
bd0019ec:	10000006 	b	bd001a08 <_bss_check>
bd0019f0:	00000000 	nop

bd0019f4 <_bss_init>:
bd0019f4:	ad000000 	sw	zero,0(t0)
bd0019f8:	ad000004 	sw	zero,4(t0)
bd0019fc:	ad000008 	sw	zero,8(t0)
bd001a00:	ad00000c 	sw	zero,12(t0)
bd001a04:	25080010 	addiu	t0,t0,16

bd001a08 <_bss_check>:
bd001a08:	0109082b 	sltu	at,t0,t1
bd001a0c:	1420fff9 	bnez	at,bd0019f4 <_bss_init>
bd001a10:	00000000 	nop
bd001a14:	3c089d00 	lui	t0,0x9d00
bd001a18:	250824d4 	addiu	t0,t0,9428
bd001a1c:	0100f809 	jalr	t0
bd001a20:	00000000 	nop
bd001a24:	3c090000 	lui	t1,0x0
bd001a28:	25290000 	addiu	t1,t1,0
bd001a2c:	11200010 	beqz	t1,bd001a70 <_ramfunc_done>
bd001a30:	00000000 	nop
bd001a34:	3c090002 	lui	t1,0x2
bd001a38:	25290000 	addiu	t1,t1,0
bd001a3c:	3c0abf88 	lui	t2,0xbf88
bd001a40:	254a2010 	addiu	t2,t2,8208
bd001a44:	ad490000 	sw	t1,0(t2)
bd001a48:	3c090002 	lui	t1,0x2
bd001a4c:	25290000 	addiu	t1,t1,0
bd001a50:	3c0abf88 	lui	t2,0xbf88
bd001a54:	254a2020 	addiu	t2,t2,8224
bd001a58:	ad490000 	sw	t1,0(t2)
bd001a5c:	3c090002 	lui	t1,0x2
bd001a60:	25290000 	addiu	t1,t1,0
bd001a64:	3c0abf88 	lui	t2,0xbf88
bd001a68:	254a2030 	addiu	t2,t2,8240
bd001a6c:	ad490000 	sw	t1,0(t2)

bd001a70 <_ramfunc_done>:
bd001a70:	40804800 	mtc0	zero,c0_count
bd001a74:	240affff 	li	t2,-1
bd001a78:	408a5800 	mtc0	t2,c0_compare
bd001a7c:	3c080040 	lui	t0,0x40
bd001a80:	400a6000 	mfc0	t2,c0_status
bd001a84:	010a5025 	or	t2,t0,t2
bd001a88:	408a6000 	mtc0	t2,c0_status
bd001a8c:	3c099d00 	lui	t1,0x9d00
bd001a90:	25290000 	addiu	t1,t1,0
bd001a94:	000000c0 	ehb
bd001a98:	40897801 	mtc0	t1,c0_ebase
bd001a9c:	3c090000 	lui	t1,0x0
bd001aa0:	25290001 	addiu	t1,t1,1
bd001aa4:	240a0000 	li	t2,0
bd001aa8:	7d2a4944 	ins	t2,t1,0x5,0x5
bd001aac:	408a6001 	mtc0	t2,c0_intctl
bd001ab0:	3c090080 	lui	t1,0x80
bd001ab4:	40896800 	mtc0	t1,c0_cause
bd001ab8:	40088000 	mfc0	t0,c0_config
bd001abc:	7d090580 	ext	t1,t0,0x16,0x1
bd001ac0:	00094c40 	sll	t1,t1,0x11
bd001ac4:	40086000 	mfc0	t0,c0_status
bd001ac8:	3c010058 	lui	at,0x58
bd001acc:	01014024 	and	t0,t0,at
bd001ad0:	01284025 	or	t0,t1,t0
bd001ad4:	40886000 	mtc0	t0,c0_status
bd001ad8:	000000c0 	ehb
bd001adc:	3c089d00 	lui	t0,0x9d00
bd001ae0:	25082718 	addiu	t0,t0,10008
bd001ae4:	0100f809 	jalr	t0
bd001ae8:	00000000 	nop
bd001aec:	40086000 	mfc0	t0,c0_status
bd001af0:	3c01ffbf 	lui	at,0xffbf
bd001af4:	3421ffff 	ori	at,at,0xffff
bd001af8:	01014024 	and	t0,t0,at
bd001afc:	40886000 	mtc0	t0,c0_status
bd001b00:	30840000 	andi	a0,a0,0x0
bd001b04:	30a50000 	andi	a1,a1,0x0
bd001b08:	3c089d00 	lui	t0,0x9d00
bd001b0c:	25082558 	addiu	t0,t0,9560
bd001b10:	01000008 	jr	t0
bd001b14:	00000000 	nop

Disassembly of section .bev_excpt:

bd001cf0 <_bev_exception>:
bd001cf0:	3c1a9d00 	lui	k0,0x9d00
bd001cf4:	275a25ac 	addiu	k0,k0,9644
bd001cf8:	03400008 	jr	k0
bd001cfc:	00000000 	nop

Disassembly of section .app_excpt:

9d000180 <_gen_exception>:
9d000180:	3c1a9d00 	lui	k0,0x9d00
9d000184:	275a23f8 	addiu	k0,k0,9208
9d000188:	03400008 	jr	k0
9d00018c:	00000000 	nop

Disassembly of section .vector_0:

9d000200 <__vector_dispatch_0>:
9d000200:	0b40098f 	j	9d00263c <.LFE0>
9d000204:	00000000 	nop

Disassembly of section .vector_1:

9d000220 <__vector_dispatch_1>:
9d000220:	0b40098f 	j	9d00263c <.LFE0>
9d000224:	00000000 	nop

Disassembly of section .vector_2:

9d000240 <__vector_dispatch_2>:
9d000240:	0b40098f 	j	9d00263c <.LFE0>
9d000244:	00000000 	nop

Disassembly of section .vector_3:

9d000260 <__vector_dispatch_3>:
9d000260:	0b40098f 	j	9d00263c <.LFE0>
9d000264:	00000000 	nop

Disassembly of section .vector_4:

9d000280 <__vector_dispatch_4>:
9d000280:	0b40098f 	j	9d00263c <.LFE0>
9d000284:	00000000 	nop

Disassembly of section .vector_5:

9d0002a0 <__vector_dispatch_5>:
9d0002a0:	0b40098f 	j	9d00263c <.LFE0>
9d0002a4:	00000000 	nop

Disassembly of section .vector_6:

9d0002c0 <__vector_dispatch_6>:
9d0002c0:	0b40098f 	j	9d00263c <.LFE0>
9d0002c4:	00000000 	nop

Disassembly of section .vector_7:

9d0002e0 <__vector_dispatch_7>:
9d0002e0:	0b40098f 	j	9d00263c <.LFE0>
9d0002e4:	00000000 	nop

Disassembly of section .vector_8:

9d000300 <__vector_dispatch_8>:
9d000300:	0b40098f 	j	9d00263c <.LFE0>
9d000304:	00000000 	nop

Disassembly of section .vector_9:

9d000320 <__vector_dispatch_9>:
9d000320:	0b40098f 	j	9d00263c <.LFE0>
9d000324:	00000000 	nop

Disassembly of section .vector_10:

9d000340 <__vector_dispatch_10>:
9d000340:	0b40098f 	j	9d00263c <.LFE0>
9d000344:	00000000 	nop

Disassembly of section .vector_11:

9d000360 <__vector_dispatch_11>:
9d000360:	0b40098f 	j	9d00263c <.LFE0>
9d000364:	00000000 	nop

Disassembly of section .vector_12:

9d000380 <__vector_dispatch_12>:
9d000380:	0b40098f 	j	9d00263c <.LFE0>
9d000384:	00000000 	nop

Disassembly of section .vector_13:

9d0003a0 <__vector_dispatch_13>:
9d0003a0:	0b40098f 	j	9d00263c <.LFE0>
9d0003a4:	00000000 	nop

Disassembly of section .vector_14:

9d0003c0 <__vector_dispatch_14>:
9d0003c0:	0b40098f 	j	9d00263c <.LFE0>
9d0003c4:	00000000 	nop

Disassembly of section .vector_15:

9d0003e0 <__vector_dispatch_15>:
9d0003e0:	0b40098f 	j	9d00263c <.LFE0>
9d0003e4:	00000000 	nop

Disassembly of section .vector_16:

9d000400 <__vector_dispatch_16>:
9d000400:	0b40098f 	j	9d00263c <.LFE0>
9d000404:	00000000 	nop

Disassembly of section .vector_17:

9d000420 <__vector_dispatch_17>:
9d000420:	0b40098f 	j	9d00263c <.LFE0>
9d000424:	00000000 	nop

Disassembly of section .vector_18:

9d000440 <__vector_dispatch_18>:
9d000440:	0b40098f 	j	9d00263c <.LFE0>
9d000444:	00000000 	nop

Disassembly of section .vector_19:

9d000460 <__vector_dispatch_19>:
9d000460:	0b40098f 	j	9d00263c <.LFE0>
9d000464:	00000000 	nop

Disassembly of section .vector_20:

9d000480 <__vector_dispatch_20>:
9d000480:	0b40098f 	j	9d00263c <.LFE0>
9d000484:	00000000 	nop

Disassembly of section .vector_21:

9d0004a0 <__vector_dispatch_21>:
9d0004a0:	0b40098f 	j	9d00263c <.LFE0>
9d0004a4:	00000000 	nop

Disassembly of section .vector_22:

9d0004c0 <__vector_dispatch_22>:
9d0004c0:	0b40098f 	j	9d00263c <.LFE0>
9d0004c4:	00000000 	nop

Disassembly of section .vector_23:

9d0004e0 <__vector_dispatch_23>:
9d0004e0:	0b40098f 	j	9d00263c <.LFE0>
9d0004e4:	00000000 	nop

Disassembly of section .vector_24:

9d000500 <__vector_dispatch_24>:
9d000500:	0b40098f 	j	9d00263c <.LFE0>
9d000504:	00000000 	nop

Disassembly of section .vector_25:

9d000520 <__vector_dispatch_25>:
9d000520:	0b40098f 	j	9d00263c <.LFE0>
9d000524:	00000000 	nop

Disassembly of section .vector_26:

9d000540 <__vector_dispatch_26>:
9d000540:	0b40098f 	j	9d00263c <.LFE0>
9d000544:	00000000 	nop

Disassembly of section .vector_27:

9d000560 <__vector_dispatch_27>:
9d000560:	0b40098f 	j	9d00263c <.LFE0>
9d000564:	00000000 	nop

Disassembly of section .vector_28:

9d000580 <__vector_dispatch_28>:
9d000580:	0b40098f 	j	9d00263c <.LFE0>
9d000584:	00000000 	nop

Disassembly of section .vector_29:

9d0005a0 <__vector_dispatch_29>:
9d0005a0:	0b40098f 	j	9d00263c <.LFE0>
9d0005a4:	00000000 	nop

Disassembly of section .vector_30:

9d0005c0 <__vector_dispatch_30>:
9d0005c0:	0b40098f 	j	9d00263c <.LFE0>
9d0005c4:	00000000 	nop

Disassembly of section .vector_31:

9d0005e0 <__vector_dispatch_31>:
9d0005e0:	0b400780 	j	9d001e00 <UartISR>
9d0005e4:	00000000 	nop

Disassembly of section .vector_32:

9d000600 <__vector_dispatch_32>:
9d000600:	0b40098f 	j	9d00263c <.LFE0>
9d000604:	00000000 	nop

Disassembly of section .vector_33:

9d000620 <__vector_dispatch_33>:
9d000620:	0b40098f 	j	9d00263c <.LFE0>
9d000624:	00000000 	nop

Disassembly of section .vector_34:

9d000640 <__vector_dispatch_34>:
9d000640:	0b40098f 	j	9d00263c <.LFE0>
9d000644:	00000000 	nop

Disassembly of section .vector_35:

9d000660 <__vector_dispatch_35>:
9d000660:	0b40098f 	j	9d00263c <.LFE0>
9d000664:	00000000 	nop

Disassembly of section .vector_36:

9d000680 <__vector_dispatch_36>:
9d000680:	0b40098f 	j	9d00263c <.LFE0>
9d000684:	00000000 	nop

Disassembly of section .vector_37:

9d0006a0 <__vector_dispatch_37>:
9d0006a0:	0b40098f 	j	9d00263c <.LFE0>
9d0006a4:	00000000 	nop

Disassembly of section .vector_38:

9d0006c0 <__vector_dispatch_38>:
9d0006c0:	0b40098f 	j	9d00263c <.LFE0>
9d0006c4:	00000000 	nop

Disassembly of section .vector_39:

9d0006e0 <__vector_dispatch_39>:
9d0006e0:	0b40098f 	j	9d00263c <.LFE0>
9d0006e4:	00000000 	nop

Disassembly of section .vector_40:

9d000700 <__vector_dispatch_40>:
9d000700:	0b40098f 	j	9d00263c <.LFE0>
9d000704:	00000000 	nop

Disassembly of section .vector_41:

9d000720 <__vector_dispatch_41>:
9d000720:	0b40098f 	j	9d00263c <.LFE0>
9d000724:	00000000 	nop

Disassembly of section .vector_42:

9d000740 <__vector_dispatch_42>:
9d000740:	0b40098f 	j	9d00263c <.LFE0>
9d000744:	00000000 	nop

Disassembly of section .vector_43:

9d000760 <__vector_dispatch_43>:
9d000760:	0b40098f 	j	9d00263c <.LFE0>
9d000764:	00000000 	nop

Disassembly of section .vector_44:

9d000780 <__vector_dispatch_44>:
9d000780:	0b40098f 	j	9d00263c <.LFE0>
9d000784:	00000000 	nop

Disassembly of section .vector_45:

9d0007a0 <__vector_dispatch_45>:
9d0007a0:	0b40098f 	j	9d00263c <.LFE0>
9d0007a4:	00000000 	nop

Disassembly of section .vector_46:

9d0007c0 <__vector_dispatch_46>:
9d0007c0:	0b40098f 	j	9d00263c <.LFE0>
9d0007c4:	00000000 	nop

Disassembly of section .vector_47:

9d0007e0 <__vector_dispatch_47>:
9d0007e0:	0b40098f 	j	9d00263c <.LFE0>
9d0007e4:	00000000 	nop

Disassembly of section .vector_48:

9d000800 <__vector_dispatch_48>:
9d000800:	0b40098f 	j	9d00263c <.LFE0>
9d000804:	00000000 	nop

Disassembly of section .vector_49:

9d000820 <__vector_dispatch_49>:
9d000820:	0b40098f 	j	9d00263c <.LFE0>
9d000824:	00000000 	nop

Disassembly of section .vector_50:

9d000840 <__vector_dispatch_50>:
9d000840:	0b40098f 	j	9d00263c <.LFE0>
9d000844:	00000000 	nop

Disassembly of section .vector_51:

9d000860 <__vector_dispatch_51>:
9d000860:	0b40098f 	j	9d00263c <.LFE0>
9d000864:	00000000 	nop

Disassembly of section ._debug_exception:

bfc00480 <__DbgExecReturn>:
bfc00480:	409bf800 	mtc0	k1,c0_desave
bfc00484:	000000c0 	ehb
bfc00488:	3c1b9d00 	lui	k1,0x9d00
bfc0048c:	277b2684 	addiu	k1,k1,9860
bfc00490:	13600002 	beqz	k1,bfc0049c <__DbgExecReturn+0x1c>
bfc00494:	00000000 	nop
bfc00498:	409bc000 	mtc0	k1,c0_depc
bfc0049c:	401bf800 	mfc0	k1,c0_desave
bfc004a0:	000000c0 	ehb
bfc004a4:	4200001f 	deret
bfc004a8:	00000000 	nop

Disassembly of section .text:

9d001e00 <UartISR>:
static volatile unsigned int populate_notes = 1;
static volatile unsigned int actual_array_size = 0;
static volatile unsigned int notes[ARRAYSIZE] = {};
static volatile unsigned int times[ARRAYSIZE] = {};

void __ISR(_UART_3_VECTOR, IPL6SRS) UartISR(void) {
9d001e00:	415de800 	rdpgpr	sp,sp
9d001e04:	401a7000 	mfc0	k0,c0_epc
9d001e08:	401b6000 	mfc0	k1,c0_status
9d001e0c:	27bdfff0 	addiu	sp,sp,-16
9d001e10:	afba000c 	sw	k0,12(sp)
9d001e14:	401a6002 	mfc0	k0,c0_srsctl
9d001e18:	afbb0008 	sw	k1,8(sp)
9d001e1c:	afba0004 	sw	k0,4(sp)
9d001e20:	7c1b7844 	ins	k1,zero,0x1,0xf
9d001e24:	377b1800 	ori	k1,k1,0x1800
9d001e28:	409b6000 	mtc0	k1,c0_status
  IFS1bits.U3RXIF = 0;
9d001e2c:	3c02bf88 	lui	v0,0xbf88
9d001e30:	8c431040 	lw	v1,4160(v0)
9d001e34:	7c033184 	ins	v1,zero,0x6,0x1
9d001e38:	ac431040 	sw	v1,4160(v0)

  unsigned int data = 0;
  data = (data | U3RXREG) << 8;
9d001e3c:	3c02bf80 	lui	v0,0xbf80
9d001e40:	8c446430 	lw	a0,25648(v0)
  data = (data | U3RXREG) << 8;
9d001e44:	8c436430 	lw	v1,25648(v0)

void __ISR(_UART_3_VECTOR, IPL6SRS) UartISR(void) {
  IFS1bits.U3RXIF = 0;

  unsigned int data = 0;
  data = (data | U3RXREG) << 8;
9d001e48:	00042200 	sll	a0,a0,0x8
  data = (data | U3RXREG) << 8;
9d001e4c:	00832025 	or	a0,a0,v1
  data = (data | U3RXREG) << 8;
9d001e50:	8c436430 	lw	v1,25648(v0)
void __ISR(_UART_3_VECTOR, IPL6SRS) UartISR(void) {
  IFS1bits.U3RXIF = 0;

  unsigned int data = 0;
  data = (data | U3RXREG) << 8;
  data = (data | U3RXREG) << 8;
9d001e54:	00042200 	sll	a0,a0,0x8
  data = (data | U3RXREG) << 8;
9d001e58:	00832025 	or	a0,a0,v1
9d001e5c:	00042200 	sll	a0,a0,0x8
  data = data | U3RXREG;
9d001e60:	8c436430 	lw	v1,25648(v0)
9d001e64:	00831025 	or	v0,a0,v1

  if (data == 0xFFFFFFFF) {
9d001e68:	2403ffff 	li	v1,-1
9d001e6c:	14430006 	bne	v0,v1,9d001e88 <UartISR+0x88>
9d001e70:	2403fffe 	li	v1,-2
    done_populating = 1;
9d001e74:	24020001 	li	v0,1
9d001e78:	af828018 	sw	v0,-32744(gp)
    i = 0;
9d001e7c:	af808020 	sw	zero,-32736(gp)
9d001e80:	0b4007d0 	j	9d001f40 <UartISR+0x140>
9d001e84:	00000000 	nop
  }
  else if (data == 0xFFFFFFFE) {
9d001e88:	14430007 	bne	v0,v1,9d001ea8 <UartISR+0xa8>
9d001e8c:	2403fffd 	li	v1,-3
    populate_notes = 0;
9d001e90:	af808010 	sw	zero,-32752(gp)
    actual_array_size = i;
9d001e94:	8f828020 	lw	v0,-32736(gp)
9d001e98:	af828014 	sw	v0,-32748(gp)
    i = 0;
9d001e9c:	af808020 	sw	zero,-32736(gp)
9d001ea0:	0b4007d0 	j	9d001f40 <UartISR+0x140>
9d001ea4:	00000000 	nop
  }
  else if (data == 0xFFFFFFFD) {
9d001ea8:	1443000a 	bne	v0,v1,9d001ed4 <UartISR+0xd4>
9d001eac:	2403fffc 	li	v1,-4
    T2CONbits.ON = !T2CONbits.ON;
9d001eb0:	3c02bf80 	lui	v0,0xbf80
9d001eb4:	8c440800 	lw	a0,2048(v0)
9d001eb8:	38848000 	xori	a0,a0,0x8000
9d001ebc:	7c8403c0 	ext	a0,a0,0xf,0x1
9d001ec0:	94430800 	lhu	v1,2048(v0)
9d001ec4:	7c837bc4 	ins	v1,a0,0xf,0x1
9d001ec8:	a4430800 	sh	v1,2048(v0)
9d001ecc:	0b4007d0 	j	9d001f40 <UartISR+0x140>
9d001ed0:	00000000 	nop
  }
  else if (data == 0xFFFFFFFC) {
9d001ed4:	14430005 	bne	v0,v1,9d001eec <UartISR+0xec>
9d001ed8:	00000000 	nop
    reset = 1;
9d001edc:	24020001 	li	v0,1
9d001ee0:	af82801c 	sw	v0,-32740(gp)
9d001ee4:	0b4007d0 	j	9d001f40 <UartISR+0x140>
9d001ee8:	00000000 	nop
  }
  else if (populate_notes) {
9d001eec:	8f838010 	lw	v1,-32752(gp)
9d001ef0:	1060000b 	beqz	v1,9d001f20 <UartISR+0x120>
9d001ef4:	00000000 	nop
    notes[i++] = data;
9d001ef8:	8f838020 	lw	v1,-32736(gp)
9d001efc:	24640001 	addiu	a0,v1,1
9d001f00:	af848020 	sw	a0,-32736(gp)
9d001f04:	00031880 	sll	v1,v1,0x2
9d001f08:	3c04a001 	lui	a0,0xa001
9d001f0c:	24849c54 	addiu	a0,a0,-25516
9d001f10:	00641821 	addu	v1,v1,a0
9d001f14:	ac620000 	sw	v0,0(v1)
9d001f18:	0b4007d0 	j	9d001f40 <UartISR+0x140>
9d001f1c:	00000000 	nop
  }
  else {
    times[i++] = data;
9d001f20:	8f838020 	lw	v1,-32736(gp)
9d001f24:	24640001 	addiu	a0,v1,1
9d001f28:	af848020 	sw	a0,-32736(gp)
9d001f2c:	00031880 	sll	v1,v1,0x2
9d001f30:	3c04a000 	lui	a0,0xa000
9d001f34:	24840014 	addiu	a0,a0,20
9d001f38:	00641821 	addu	v1,v1,a0
9d001f3c:	ac620000 	sw	v0,0(v1)
  }
}
9d001f40:	41606000 	di
9d001f44:	000000c0 	ehb
9d001f48:	8fbb0004 	lw	k1,4(sp)
9d001f4c:	8fba000c 	lw	k0,12(sp)
9d001f50:	409b6002 	mtc0	k1,c0_srsctl
9d001f54:	8fbb0008 	lw	k1,8(sp)
9d001f58:	409a7000 	mtc0	k0,c0_epc
9d001f5c:	27bd0010 	addiu	sp,sp,16
9d001f60:	41dde800 	wrpgpr	sp,sp
9d001f64:	409b6000 	mtc0	k1,c0_status
9d001f68:	42000018 	eret

9d001f6c <main>:

int main(void) {
9d001f6c:	27bdffd8 	addiu	sp,sp,-40
9d001f70:	afbf0024 	sw	ra,36(sp)
9d001f74:	afb30020 	sw	s3,32(sp)
9d001f78:	afb2001c 	sw	s2,28(sp)
9d001f7c:	afb10018 	sw	s1,24(sp)
  NU32_Startup();
9d001f80:	0f40088d 	jal	9d002234 <NU32_Startup>
9d001f84:	afb00014 	sw	s0,20(sp)

9d001f88 <.LVL17>:

  TRISBCLR = 0xFFFF;
9d001f88:	3402ffff 	li	v0,0xffff
9d001f8c:	3c03bf88 	lui	v1,0xbf88
9d001f90:	ac626044 	sw	v0,24644(v1)
  TRISCCLR = 0xFFFF;
9d001f94:	3c03bf88 	lui	v1,0xbf88
9d001f98:	ac626084 	sw	v0,24708(v1)
  TRISDCLR = 0xFFFF;
9d001f9c:	3c03bf88 	lui	v1,0xbf88
9d001fa0:	ac6260c4 	sw	v0,24772(v1)
  TRISECLR = 0xFFFF;
9d001fa4:	3c03bf88 	lui	v1,0xbf88
9d001fa8:	ac626104 	sw	v0,24836(v1)
  TRISFCLR = 0xFFFF;
9d001fac:	3c03bf88 	lui	v1,0xbf88
9d001fb0:	ac626144 	sw	v0,24900(v1)
  LATBCLR = 0xFFFF;
9d001fb4:	3c03bf88 	lui	v1,0xbf88
9d001fb8:	ac626064 	sw	v0,24676(v1)
  LATCCLR = 0xFFFF;
9d001fbc:	3c03bf88 	lui	v1,0xbf88
9d001fc0:	ac6260a4 	sw	v0,24740(v1)
  LATDCLR = 0xFFFF;
9d001fc4:	3c03bf88 	lui	v1,0xbf88
9d001fc8:	ac6260e4 	sw	v0,24804(v1)
  LATECLR = 0xFFFF;
9d001fcc:	3c03bf88 	lui	v1,0xbf88
9d001fd0:	ac626124 	sw	v0,24868(v1)
  LATFCLR = 0xFFFF;
9d001fd4:	3c03bf88 	lui	v1,0xbf88
9d001fd8:	ac626164 	sw	v0,24932(v1)

  __builtin_disable_interrupts();
9d001fdc:	41626000 	di	v0
9d001fe0:	000000c0 	ehb
  U3STAbits.URXISEL = 1;
9d001fe4:	3c02bf80 	lui	v0,0xbf80
9d001fe8:	8c446410 	lw	a0,25616(v0)
9d001fec:	24030001 	li	v1,1
9d001ff0:	7c643984 	ins	a0,v1,0x6,0x2
9d001ff4:	ac446410 	sw	a0,25616(v0)
  IFS1bits.U3RXIF = 0;
9d001ff8:	3c02bf88 	lui	v0,0xbf88
9d001ffc:	8c441040 	lw	a0,4160(v0)
9d002000:	7c043184 	ins	a0,zero,0x6,0x1
9d002004:	ac441040 	sw	a0,4160(v0)
  IPC7bits.U3IP = 6;
9d002008:	3c02bf88 	lui	v0,0xbf88
9d00200c:	8c441100 	lw	a0,4352(v0)
9d002010:	24050006 	li	a1,6
9d002014:	7ca4e684 	ins	a0,a1,0x1a,0x3
9d002018:	ac441100 	sw	a0,4352(v0)
  IEC1bits.U3RXIE = 1;
9d00201c:	3c02bf88 	lui	v0,0xbf88
9d002020:	8c441070 	lw	a0,4208(v0)
9d002024:	7c643184 	ins	a0,v1,0x6,0x1
9d002028:	ac441070 	sw	a0,4208(v0)

  T2CONbits.T32 = 1;
9d00202c:	3c02bf80 	lui	v0,0xbf80
9d002030:	94440800 	lhu	a0,2048(v0)
9d002034:	7c6418c4 	ins	a0,v1,0x3,0x1
9d002038:	a4440800 	sh	a0,2048(v0)
  T2CONbits.TCKPS = 7;
9d00203c:	94440800 	lhu	a0,2048(v0)
9d002040:	24050007 	li	a1,7
9d002044:	7ca43104 	ins	a0,a1,0x4,0x3
9d002048:	a4440800 	sh	a0,2048(v0)
  T2CONbits.ON = 1;
9d00204c:	94440800 	lhu	a0,2048(v0)
9d002050:	7c647bc4 	ins	a0,v1,0xf,0x1
9d002054:	a4440800 	sh	a0,2048(v0)
  __builtin_enable_interrupts();
9d002058:	41626020 	ei	v0

  int j = 0;

  loop:
    NU32_LED2 = 1;
9d00205c:	3c1fbf88 	lui	ra,0xbf88
      ;
    }
    NU32_LED2 = 0;

    reset = 0;
    TMR2 = 0;
9d002060:	3c06bf80 	lui	a2,0xbf80
    T2CONbits.ON = 1;
9d002064:	3c10bf80 	lui	s0,0xbf80

    while (1) {
      if (TMR2 > times[i]) {
9d002068:	3c07a000 	lui	a3,0xa000
9d00206c:	24e70014 	addiu	a3,a3,20
        LATBSET = (0x0FFF & (notes[i] >> 16)) | ((notes[i] << 10) & 0xF000);
9d002070:	3c03a001 	lui	v1,0xa001
9d002074:	24639c54 	addiu	v1,v1,-25516
9d002078:	3c0fbf88 	lui	t7,0xbf88
        LATCSET = notes[i] << 7;
9d00207c:	3c0ebf88 	lui	t6,0xbf88
        LATDSET = notes[i] >> 8;
9d002080:	3c0dbf88 	lui	t5,0xbf88
        LATESET = notes[i] >> 24;
9d002084:	3c0cbf88 	lui	t4,0xbf88
        LATFSET = notes[i] << 4;
9d002088:	3c0bbf88 	lui	t3,0xbf88

        for (j = 0; j < 500000; j++) {
          _nop();
        }

        LATBCLR = 0xFFFF;
9d00208c:	3c0abf88 	lui	t2,0xbf88
        LATCCLR = 0xFFFF;
9d002090:	3c09bf88 	lui	t1,0xbf88
        LATDCLR = 0xFFFF;
9d002094:	3c08bf88 	lui	t0,0xbf88

        for (j = 0; j < 500000; j++) {
          _nop();
        }

        LATBCLR = 0xFFFF;
9d002098:	3404ffff 	li	a0,0xffff
        LATECLR = 0xFFFF;
        LATFCLR = 0xFFFF;

        if ((++i == actual_array_size) || (reset)) {
          if (!reset) {
            U3TXREG = 0xFF;
9d00209c:	3c12bf80 	lui	s2,0xbf80
9d0020a0:	241100ff 	li	s1,255
  __builtin_enable_interrupts();

  int j = 0;

  loop:
    NU32_LED2 = 1;
9d0020a4:	93e26160 	lbu	v0,24928(ra)
9d0020a8:	24050001 	li	a1,1
9d0020ac:	7ca20844 	ins	v0,a1,0x1,0x1
9d0020b0:	a3e26160 	sb	v0,24928(ra)
    while (!done_populating) {
9d0020b4:	8f828018 	lw	v0,-32744(gp)
9d0020b8:	1040fffe 	beqz	v0,9d0020b4 <.LVL17+0x12c>
9d0020bc:	00000000 	nop
      ;
    }
    NU32_LED2 = 0;
9d0020c0:	93e26160 	lbu	v0,24928(ra)
9d0020c4:	7c020844 	ins	v0,zero,0x1,0x1
9d0020c8:	a3e26160 	sb	v0,24928(ra)

    reset = 0;
9d0020cc:	af80801c 	sw	zero,-32740(gp)
    TMR2 = 0;
9d0020d0:	acc00810 	sw	zero,2064(a2)
    T2CONbits.ON = 1;
9d0020d4:	96020800 	lhu	v0,2048(s0)
9d0020d8:	24050001 	li	a1,1
9d0020dc:	7ca27bc4 	ins	v0,a1,0xf,0x1
9d0020e0:	a6020800 	sh	v0,2048(s0)
      if (TMR2 > times[i]) {
        LATBSET = (0x0FFF & (notes[i] >> 16)) | ((notes[i] << 10) & 0xF000);
        LATCSET = notes[i] << 7;
        LATDSET = notes[i] >> 8;
        LATESET = notes[i] >> 24;
        LATFSET = notes[i] << 4;
9d0020e4:	3c130007 	lui	s3,0x7
9d0020e8:	3673a120 	ori	s3,s3,0xa120
        }

        LATBCLR = 0xFFFF;
        LATCCLR = 0xFFFF;
        LATDCLR = 0xFFFF;
        LATECLR = 0xFFFF;
9d0020ec:	3c19bf88 	lui	t9,0xbf88
        LATFCLR = 0xFFFF;
9d0020f0:	3c18bf88 	lui	t8,0xbf88
    reset = 0;
    TMR2 = 0;
    T2CONbits.ON = 1;

    while (1) {
      if (TMR2 > times[i]) {
9d0020f4:	8f828020 	lw	v0,-32736(gp)
9d0020f8:	00021080 	sll	v0,v0,0x2
9d0020fc:	00471021 	addu	v0,v0,a3
9d002100:	8c450000 	lw	a1,0(v0)
9d002104:	8cc20810 	lw	v0,2064(a2)
9d002108:	00a2102b 	sltu	v0,a1,v0
9d00210c:	10400041 	beqz	v0,9d002214 <.LVL17+0x28c>
9d002110:	00000000 	nop
        LATBSET = (0x0FFF & (notes[i] >> 16)) | ((notes[i] << 10) & 0xF000);
9d002114:	8f828020 	lw	v0,-32736(gp)
9d002118:	00021080 	sll	v0,v0,0x2
9d00211c:	00431021 	addu	v0,v0,v1
9d002120:	8c420000 	lw	v0,0(v0)
9d002124:	8f858020 	lw	a1,-32736(gp)
9d002128:	00052880 	sll	a1,a1,0x2
9d00212c:	00a32821 	addu	a1,a1,v1
9d002130:	8ca50000 	lw	a1,0(a1)
9d002134:	00052a80 	sll	a1,a1,0xa
9d002138:	30a5f000 	andi	a1,a1,0xf000
9d00213c:	7c425c00 	ext	v0,v0,0x10,0xc
9d002140:	00a21025 	or	v0,a1,v0
9d002144:	ade26068 	sw	v0,24680(t7)
        LATCSET = notes[i] << 7;
9d002148:	8f828020 	lw	v0,-32736(gp)
9d00214c:	00021080 	sll	v0,v0,0x2
9d002150:	00431021 	addu	v0,v0,v1
9d002154:	8c420000 	lw	v0,0(v0)
9d002158:	000211c0 	sll	v0,v0,0x7
9d00215c:	adc260a8 	sw	v0,24744(t6)
        LATDSET = notes[i] >> 8;
9d002160:	8f828020 	lw	v0,-32736(gp)
9d002164:	00021080 	sll	v0,v0,0x2
9d002168:	00431021 	addu	v0,v0,v1
9d00216c:	8c420000 	lw	v0,0(v0)
9d002170:	00021202 	srl	v0,v0,0x8
9d002174:	ada260e8 	sw	v0,24808(t5)
        LATESET = notes[i] >> 24;
9d002178:	8f828020 	lw	v0,-32736(gp)
9d00217c:	00021080 	sll	v0,v0,0x2
9d002180:	00431021 	addu	v0,v0,v1
9d002184:	8c420000 	lw	v0,0(v0)
9d002188:	00021602 	srl	v0,v0,0x18
9d00218c:	ad826128 	sw	v0,24872(t4)
        LATFSET = notes[i] << 4;
9d002190:	8f828020 	lw	v0,-32736(gp)
9d002194:	00021080 	sll	v0,v0,0x2
9d002198:	00431021 	addu	v0,v0,v1
9d00219c:	8c420000 	lw	v0,0(v0)
9d0021a0:	00021100 	sll	v0,v0,0x4
9d0021a4:	ad626168 	sw	v0,24936(t3)
9d0021a8:	02601021 	move	v0,s3

        for (j = 0; j < 500000; j++) {
          _nop();
9d0021ac:	00000040 	ssnop
9d0021b0:	2442ffff 	addiu	v0,v0,-1
        LATCSET = notes[i] << 7;
        LATDSET = notes[i] >> 8;
        LATESET = notes[i] >> 24;
        LATFSET = notes[i] << 4;

        for (j = 0; j < 500000; j++) {
9d0021b4:	1440fffd 	bnez	v0,9d0021ac <.LVL17+0x224>
9d0021b8:	00000000 	nop
          _nop();
        }

        LATBCLR = 0xFFFF;
9d0021bc:	ad446064 	sw	a0,24676(t2)
        LATCCLR = 0xFFFF;
9d0021c0:	ad2460a4 	sw	a0,24740(t1)
        LATDCLR = 0xFFFF;
9d0021c4:	ad0460e4 	sw	a0,24804(t0)
        LATECLR = 0xFFFF;
9d0021c8:	af246124 	sw	a0,24868(t9)
        LATFCLR = 0xFFFF;
9d0021cc:	af046164 	sw	a0,24932(t8)

        if ((++i == actual_array_size) || (reset)) {
9d0021d0:	8f828020 	lw	v0,-32736(gp)
9d0021d4:	24420001 	addiu	v0,v0,1
9d0021d8:	af828020 	sw	v0,-32736(gp)
9d0021dc:	8f858014 	lw	a1,-32748(gp)
9d0021e0:	10450004 	beq	v0,a1,9d0021f4 <.LVL17+0x26c>
9d0021e4:	00000000 	nop
9d0021e8:	8f82801c 	lw	v0,-32740(gp)
9d0021ec:	1040ffc1 	beqz	v0,9d0020f4 <.LVL17+0x16c>
9d0021f0:	00000000 	nop
          if (!reset) {
9d0021f4:	8f82801c 	lw	v0,-32740(gp)
9d0021f8:	50400001 	beqzl	v0,9d002200 <.LVL17+0x278>
9d0021fc:	ae516420 	sw	s1,25632(s2)
            U3TXREG = 0xFF;
          }
          i = 0;
9d002200:	af808020 	sw	zero,-32736(gp)
          done_populating = 0;
9d002204:	af808018 	sw	zero,-32744(gp)
          populate_notes = 1;
9d002208:	24020001 	li	v0,1
          goto loop;
9d00220c:	0b400829 	j	9d0020a4 <.LVL17+0x11c>
9d002210:	af828010 	sw	v0,-32752(gp)
        }
      }

      else if (reset) {
9d002214:	8f82801c 	lw	v0,-32740(gp)
9d002218:	1040ffb6 	beqz	v0,9d0020f4 <.LVL17+0x16c>
9d00221c:	00000000 	nop
        i = 0;
9d002220:	af808020 	sw	zero,-32736(gp)
        done_populating = 0;
9d002224:	af808018 	sw	zero,-32744(gp)
        populate_notes = 1;
9d002228:	24020001 	li	v0,1
        goto loop;
9d00222c:	0b400829 	j	9d0020a4 <.LVL17+0x11c>
9d002230:	af828010 	sw	v0,-32752(gp)

9d002234 <NU32_Startup>:

// Perform startup routines:
//  Make NU32_LED1 and NU32_LED2 pins outputs (NU32_USER is by default an input)
//  Initialize the serial port - UART3 (no interrupt)
//  Enable interrupts
void NU32_Startup() {
9d002234:	27bdfff8 	addiu	sp,sp,-8
9d002238:	afbf0004 	sw	ra,4(sp)
  // disable interrupts
  __builtin_disable_interrupts();
9d00223c:	41626000 	di	v0
9d002240:	000000c0 	ehb
  // see Chapter 2 "CPU for Devices with M4K Core" of the PIC32 reference manual
  // most of the other bits have prescribed values
  // microchip does not provide a _CP0_SET_CONFIG macro, so we directly use
  // the compiler built-in command _mtc0
  // to disable cache, use 0xa4210582
  __builtin_mtc0(_CP0_CONFIG, _CP0_CONFIG_SELECT, 0xa4210583);
9d002244:	3c02a421 	lui	v0,0xa421
9d002248:	24420583 	addiu	v0,v0,1411
9d00224c:	40828000 	mtc0	v0,c0_config
9d002250:	000000c0 	ehb

  // set the prefectch cache wait state to 2, as per the
  // electrical characteristics data sheet
  CHECONbits.PFMWS = 0x2;
9d002254:	3c02bf88 	lui	v0,0xbf88
9d002258:	8c434000 	lw	v1,16384(v0)
9d00225c:	24050002 	li	a1,2
9d002260:	7ca31004 	ins	v1,a1,0x0,0x3
9d002264:	ac434000 	sw	v1,16384(v0)

  //enable prefetch for cacheable and noncacheable memory
  CHECONbits.PREFEN = 0x3;
9d002268:	8c434000 	lw	v1,16384(v0)
9d00226c:	24040003 	li	a0,3
9d002270:	7c832904 	ins	v1,a0,0x4,0x2
9d002274:	ac434000 	sw	v1,16384(v0)

  // 0 data RAM access wait states
  BMXCONbits.BMXWSDRM = 0x0;
9d002278:	3c02bf88 	lui	v0,0xbf88
9d00227c:	8c432000 	lw	v1,8192(v0)
9d002280:	7c033184 	ins	v1,zero,0x6,0x1
9d002284:	ac432000 	sw	v1,8192(v0)

  // enable multi vector interrupts
  INTCONbits.MVEC = 0x1;
9d002288:	3c02bf88 	lui	v0,0xbf88
9d00228c:	8c461000 	lw	a2,4096(v0)
9d002290:	24030001 	li	v1,1
9d002294:	7c666304 	ins	a2,v1,0xc,0x1
9d002298:	ac461000 	sw	a2,4096(v0)

  // disable JTAG to get B10, B11, B12 and B13 back
  DDPCONbits.JTAGEN = 0;
9d00229c:	3c02bf81 	lui	v0,0xbf81
9d0022a0:	9046f200 	lbu	a2,-3584(v0)
9d0022a4:	7c0618c4 	ins	a2,zero,0x3,0x1
9d0022a8:	a046f200 	sb	a2,-3584(v0)

  TRISFCLR = 0x0003;  // Make F0 and F1 outputs (LED1 and LED2)
9d0022ac:	3c02bf88 	lui	v0,0xbf88
9d0022b0:	ac446144 	sw	a0,24900(v0)
  NU32_LED1 = 1;      // LED1 is off
9d0022b4:	3c02bf88 	lui	v0,0xbf88
9d0022b8:	90446160 	lbu	a0,24928(v0)
9d0022bc:	7c640004 	ins	a0,v1,0x0,0x1
9d0022c0:	a0446160 	sb	a0,24928(v0)
  NU32_LED2 = 0;      // LED2 is on
9d0022c4:	90446160 	lbu	a0,24928(v0)
9d0022c8:	7c040844 	ins	a0,zero,0x1,0x1
9d0022cc:	a0446160 	sb	a0,24928(v0)

  // turn on UART3 without an interrupt
  U3MODEbits.BRGH = 0; // set baud to NU32_DESIRED_BAUD
9d0022d0:	3c02bf80 	lui	v0,0xbf80
9d0022d4:	94446400 	lhu	a0,25600(v0)
9d0022d8:	7c0418c4 	ins	a0,zero,0x3,0x1
9d0022dc:	a4446400 	sh	a0,25600(v0)
  U3BRG = ((NU32_SYS_FREQ / NU32_DESIRED_BAUD) / 16) - 1;
9d0022e0:	24060014 	li	a2,20
9d0022e4:	3c04bf80 	lui	a0,0xbf80
9d0022e8:	ac866440 	sw	a2,25664(a0)

  // 8 bit, no parity bit, and 1 stop bit (8N1 setup)
  U3MODEbits.PDSEL = 0;
9d0022ec:	94446400 	lhu	a0,25600(v0)
9d0022f0:	7c041044 	ins	a0,zero,0x1,0x2
9d0022f4:	a4446400 	sh	a0,25600(v0)
  U3MODEbits.STSEL = 0;
9d0022f8:	94446400 	lhu	a0,25600(v0)
9d0022fc:	7c040004 	ins	a0,zero,0x0,0x1
9d002300:	a4446400 	sh	a0,25600(v0)

  // configure TX & RX pins as output & input pins
  U3STAbits.UTXEN = 1;
9d002304:	3c04bf80 	lui	a0,0xbf80
9d002308:	8c866410 	lw	a2,25616(a0)
9d00230c:	7c665284 	ins	a2,v1,0xa,0x1
9d002310:	ac866410 	sw	a2,25616(a0)
  U3STAbits.URXEN = 1;
9d002314:	8c866410 	lw	a2,25616(a0)
9d002318:	7c666304 	ins	a2,v1,0xc,0x1
9d00231c:	ac866410 	sw	a2,25616(a0)
  // configure hardware flow control using RTS and CTS
  U3MODEbits.UEN = 2;
9d002320:	94446400 	lhu	a0,25600(v0)
9d002324:	7ca44a04 	ins	a0,a1,0x8,0x2
9d002328:	a4446400 	sh	a0,25600(v0)

  // enable the uart
  U3MODEbits.ON = 1;
9d00232c:	94446400 	lhu	a0,25600(v0)
9d002330:	7c647bc4 	ins	a0,v1,0xf,0x1
9d002334:	a4446400 	sh	a0,25600(v0)

  __builtin_enable_interrupts();
9d002338:	41626020 	ei	v0
}
9d00233c:	8fbf0004 	lw	ra,4(sp)
9d002340:	03e00008 	jr	ra
9d002344:	27bd0008 	addiu	sp,sp,8

9d002348 <NU32_ReadUART3>:
// Read from UART3
// block other functions until you get a '\r' or '\n'
// send the pointer to your char array and the number of elements in the array
void NU32_ReadUART3(char * message, int maxLength) {
  char data = 0;
  int complete = 0, num_bytes = 0;
9d002348:	00003021 	move	a2,zero
  // loop until you get a '\r' or '\n'
  while (!complete) {
    if (U3STAbits.URXDA) { // if data is available
9d00234c:	3c03bf80 	lui	v1,0xbf80
      data = U3RXREG;      // read the data
9d002350:	3c08bf80 	lui	t0,0xbf80
      if ((data == '\n') || (data == '\r')) {
9d002354:	2407000a 	li	a3,10
9d002358:	0b4008e6 	j	9d002398 <NU32_ReadUART3+0x50>
9d00235c:	2409000d 	li	t1,13
void NU32_ReadUART3(char * message, int maxLength) {
  char data = 0;
  int complete = 0, num_bytes = 0;
  // loop until you get a '\r' or '\n'
  while (!complete) {
    if (U3STAbits.URXDA) { // if data is available
9d002360:	8c626410 	lw	v0,25616(v1)
9d002364:	30420001 	andi	v0,v0,0x1
9d002368:	1040fffd 	beqz	v0,9d002360 <NU32_ReadUART3+0x18>
9d00236c:	00000000 	nop
      data = U3RXREG;      // read the data
9d002370:	8d026430 	lw	v0,25648(t0)
9d002374:	7c021420 	seb	v0,v0
      if ((data == '\n') || (data == '\r')) {
9d002378:	5047000e 	beql	v0,a3,9d0023b4 <NU32_ReadUART3+0x6c>
9d00237c:	00862021 	addu	a0,a0,a2
9d002380:	1049000b 	beq	v0,t1,9d0023b0 <NU32_ReadUART3+0x68>
9d002384:	00865021 	addu	t2,a0,a2
        complete = 1;
      } else {
        message[num_bytes] = data;
9d002388:	a1420000 	sb	v0,0(t2)
        ++num_bytes;
9d00238c:	24c60001 	addiu	a2,a2,1
        // roll over if the array is too small
        if (num_bytes >= maxLength) {
9d002390:	00c5102a 	slt	v0,a2,a1
          num_bytes = 0;
9d002394:	0002300a 	movz	a2,zero,v0
void NU32_ReadUART3(char * message, int maxLength) {
  char data = 0;
  int complete = 0, num_bytes = 0;
  // loop until you get a '\r' or '\n'
  while (!complete) {
    if (U3STAbits.URXDA) { // if data is available
9d002398:	8c626410 	lw	v0,25616(v1)
9d00239c:	30420001 	andi	v0,v0,0x1
9d0023a0:	1040ffef 	beqz	v0,9d002360 <NU32_ReadUART3+0x18>
9d0023a4:	00000000 	nop
9d0023a8:	0b4008dc 	j	9d002370 <NU32_ReadUART3+0x28>
9d0023ac:	00000000 	nop
        }
      }
    }
  }
  // end the string
  message[num_bytes] = '\0';
9d0023b0:	00862021 	addu	a0,a0,a2
9d0023b4:	03e00008 	jr	ra
9d0023b8:	a0800000 	sb	zero,0(a0)

9d0023bc <NU32_WriteUART3>:
}

// Write a character array using UART3
void NU32_WriteUART3(const char * string) {
  while (*string != '\0') {
9d0023bc:	80850000 	lb	a1,0(a0)
9d0023c0:	10a0000b 	beqz	a1,9d0023f0 <NU32_WriteUART3+0x34>
9d0023c4:	3c03bf80 	lui	v1,0xbf80
    while (U3STAbits.UTXBF) {
      ; // wait until tx buffer isn't full
    }
    U3TXREG = *string;
9d0023c8:	3c06bf80 	lui	a2,0xbf80
}

// Write a character array using UART3
void NU32_WriteUART3(const char * string) {
  while (*string != '\0') {
    while (U3STAbits.UTXBF) {
9d0023cc:	8c626410 	lw	v0,25616(v1)
9d0023d0:	30420200 	andi	v0,v0,0x200
9d0023d4:	1440fffd 	bnez	v0,9d0023cc <NU32_WriteUART3+0x10>
9d0023d8:	00000000 	nop
      ; // wait until tx buffer isn't full
    }
    U3TXREG = *string;
9d0023dc:	acc56420 	sw	a1,25632(a2)
    ++string;
9d0023e0:	24840001 	addiu	a0,a0,1
  message[num_bytes] = '\0';
}

// Write a character array using UART3
void NU32_WriteUART3(const char * string) {
  while (*string != '\0') {
9d0023e4:	80850000 	lb	a1,0(a0)
9d0023e8:	14a0fff8 	bnez	a1,9d0023cc <NU32_WriteUART3+0x10>
9d0023ec:	00000000 	nop
9d0023f0:	03e00008 	jr	ra
9d0023f4:	00000000 	nop

Disassembly of section .text.general_exception:

9d0023f8 <_general_exception_context>:
9d0023f8:	27bdffa8 	addiu	sp,sp,-88
9d0023fc:	afa10004 	sw	at,4(sp)
9d002400:	afa20008 	sw	v0,8(sp)
9d002404:	afa3000c 	sw	v1,12(sp)
9d002408:	afa40010 	sw	a0,16(sp)
9d00240c:	afa50014 	sw	a1,20(sp)
9d002410:	afa60018 	sw	a2,24(sp)
9d002414:	afa7001c 	sw	a3,28(sp)
9d002418:	afa80020 	sw	t0,32(sp)
9d00241c:	afa90024 	sw	t1,36(sp)
9d002420:	afaa0028 	sw	t2,40(sp)
9d002424:	afab002c 	sw	t3,44(sp)
9d002428:	afac0030 	sw	t4,48(sp)
9d00242c:	afad0034 	sw	t5,52(sp)
9d002430:	afae0038 	sw	t6,56(sp)
9d002434:	afaf003c 	sw	t7,60(sp)
9d002438:	afb80040 	sw	t8,64(sp)
9d00243c:	afb90044 	sw	t9,68(sp)
9d002440:	afbf0048 	sw	ra,72(sp)
9d002444:	00004012 	mflo	t0
9d002448:	afa8004c 	sw	t0,76(sp)
9d00244c:	00004010 	mfhi	t0
9d002450:	afa80050 	sw	t0,80(sp)
9d002454:	3c1a9d00 	lui	k0,0x9d00
9d002458:	275a25f4 	addiu	k0,k0,9716
9d00245c:	00000000 	nop
9d002460:	40046800 	mfc0	a0,c0_cause
9d002464:	40056000 	mfc0	a1,c0_status
9d002468:	0340f809 	jalr	k0
9d00246c:	00000000 	nop
9d002470:	8fa80050 	lw	t0,80(sp)
9d002474:	01000011 	mthi	t0
9d002478:	8fa8004c 	lw	t0,76(sp)
9d00247c:	01000013 	mtlo	t0
9d002480:	8fa10004 	lw	at,4(sp)
9d002484:	8fa20008 	lw	v0,8(sp)
9d002488:	8fa3000c 	lw	v1,12(sp)
9d00248c:	8fa40010 	lw	a0,16(sp)
9d002490:	8fa50014 	lw	a1,20(sp)
9d002494:	8fa60018 	lw	a2,24(sp)
9d002498:	8fa7001c 	lw	a3,28(sp)
9d00249c:	8fa80020 	lw	t0,32(sp)
9d0024a0:	8fa90024 	lw	t1,36(sp)
9d0024a4:	8faa0028 	lw	t2,40(sp)
9d0024a8:	8fab002c 	lw	t3,44(sp)
9d0024ac:	8fac0030 	lw	t4,48(sp)
9d0024b0:	8fad0034 	lw	t5,52(sp)
9d0024b4:	8fae0038 	lw	t6,56(sp)
9d0024b8:	8faf003c 	lw	t7,60(sp)
9d0024bc:	8fb80040 	lw	t8,64(sp)
9d0024c0:	8fb90044 	lw	t9,68(sp)
9d0024c4:	8fbf0048 	lw	ra,72(sp)
9d0024c8:	27bd0058 	addiu	sp,sp,88
9d0024cc:	000000c0 	ehb
9d0024d0:	42000018 	eret

Disassembly of section .text:

9d0024d4 <__pic32_data_init>:
9d0024d4:	03e01821 	move	v1,ra

9d0024d8 <_dinit_init>:
9d0024d8:	3c089d00 	lui	t0,0x9d00
9d0024dc:	250826c8 	addiu	t0,t0,9928
9d0024e0:	8d090000 	lw	t1,0(t0)
9d0024e4:	11200018 	beqz	t1,9d002548 <_dinit_end+0x18>
9d0024e8:	25080004 	addiu	t0,t0,4
9d0024ec:	8d0a0000 	lw	t2,0(t0)
9d0024f0:	25080004 	addiu	t0,t0,4
9d0024f4:	8d0b0000 	lw	t3,0(t0)
9d0024f8:	11600009 	beqz	t3,9d002520 <_dinit_clear>
9d0024fc:	25080004 	addiu	t0,t0,4

9d002500 <_dinit_copy>:
9d002500:	910c0000 	lbu	t4,0(t0)
9d002504:	254affff 	addiu	t2,t2,-1
9d002508:	25080001 	addiu	t0,t0,1
9d00250c:	a12c0000 	sb	t4,0(t1)
9d002510:	1540fffb 	bnez	t2,9d002500 <_dinit_copy>
9d002514:	25290001 	addiu	t1,t1,1
9d002518:	10000005 	b	9d002530 <_dinit_end>
9d00251c:	00000000 	nop

9d002520 <_dinit_clear>:
9d002520:	a1200000 	sb	zero,0(t1)
9d002524:	254affff 	addiu	t2,t2,-1
9d002528:	1540fffd 	bnez	t2,9d002520 <_dinit_clear>
9d00252c:	25290001 	addiu	t1,t1,1

9d002530 <_dinit_end>:
9d002530:	25080003 	addiu	t0,t0,3
9d002534:	240afffc 	li	t2,-4
9d002538:	01484024 	and	t0,t2,t0
9d00253c:	8d090000 	lw	t1,0(t0)
9d002540:	1520ffe7 	bnez	t1,9d0024e0 <_dinit_init+0x8>
9d002544:	00000000 	nop
9d002548:	0060f821 	move	ra,v1
9d00254c:	03e00008 	jr	ra
9d002550:	00000000 	nop
9d002554:	00000000 	nop

Disassembly of section .text.main_entry:

9d002558 <_main_entry>:
9d002558:	3c040000 	lui	a0,0x0
9d00255c:	27bdffe8 	addiu	sp,sp,-24
9d002560:	24840000 	addiu	a0,a0,0
9d002564:	10800003 	beqz	a0,9d002574 <_main_entry+0x1c>
9d002568:	afbf0014 	sw	ra,20(sp)
9d00256c:	0080f809 	jalr	a0
9d002570:	00000000 	nop
9d002574:	30840000 	andi	a0,a0,0x0
9d002578:	30a50000 	andi	a1,a1,0x0
9d00257c:	3c089d00 	lui	t0,0x9d00
9d002580:	25081f6c 	addiu	t0,t0,8044
9d002584:	0100f809 	jalr	t0
9d002588:	00000000 	nop

9d00258c <__crt0_exit>:
9d00258c:	3c020000 24420000 10400003 00000000     ...<..B$..@.....
9d00259c:	0040f809 00000000 1000fff9 00000000     ..@.............

Disassembly of section .text._bootstrap_exception_handler:

9d0025ac <_bootstrap_exception_handler>:
9d0025ac:	3c020000 	lui	v0,0x0
9d0025b0:	24420000 	addiu	v0,v0,0
9d0025b4:	10400005 	beqz	v0,9d0025cc <_bootstrap_exception_handler+0x20>
9d0025b8:	3c020000 	lui	v0,0x0
9d0025bc:	24420000 	addiu	v0,v0,0
9d0025c0:	10400003 	beqz	v0,9d0025d0 <_bootstrap_exception_handler+0x24>
9d0025c4:	3c029d00 	lui	v0,0x9d00
9d0025c8:	7000003f 	sdbbp
9d0025cc:	3c029d00 	lui	v0,0x9d00
9d0025d0:	24422684 	addiu	v0,v0,9860
9d0025d4:	10400005 	beqz	v0,9d0025ec <.LCFI2>
9d0025d8:	00000000 	nop
9d0025dc:	27bdffe8 	addiu	sp,sp,-24

9d0025e0 <.LCFI0>:
9d0025e0:	afbf0014 	sw	ra,20(sp)
9d0025e4:	0040f809 	jalr	v0
9d0025e8:	00000000 	nop

9d0025ec <.LCFI2>:
9d0025ec:	0b40097b 	j	9d0025ec <.LCFI2>
9d0025f0:	00000000 	nop

Disassembly of section .text._general_exception_handler:

9d0025f4 <_general_exception_handler>:
9d0025f4:	3c020000 	lui	v0,0x0
9d0025f8:	24420000 	addiu	v0,v0,0
9d0025fc:	10400005 	beqz	v0,9d002614 <_general_exception_handler+0x20>
9d002600:	3c020000 	lui	v0,0x0
9d002604:	24420000 	addiu	v0,v0,0
9d002608:	10400003 	beqz	v0,9d002618 <_general_exception_handler+0x24>
9d00260c:	3c029d00 	lui	v0,0x9d00
9d002610:	7000003f 	sdbbp
9d002614:	3c029d00 	lui	v0,0x9d00
9d002618:	24422684 	addiu	v0,v0,9860
9d00261c:	10400005 	beqz	v0,9d002634 <.LCFI2>
9d002620:	00000000 	nop
9d002624:	27bdffe8 	addiu	sp,sp,-24

9d002628 <.LCFI0>:
9d002628:	afbf0014 	sw	ra,20(sp)
9d00262c:	0040f809 	jalr	v0
9d002630:	00000000 	nop

9d002634 <.LCFI2>:
9d002634:	0b40098d 	j	9d002634 <.LCFI2>
9d002638:	00000000 	nop

Disassembly of section .vector_default:

9d00263c <_DefaultInterrupt>:
9d00263c:	3c020000 	lui	v0,0x0
9d002640:	24420000 	addiu	v0,v0,0
9d002644:	10400007 	beqz	v0,9d002664 <_DefaultInterrupt+0x28>
9d002648:	3c020000 	lui	v0,0x0
9d00264c:	24420000 	addiu	v0,v0,0
9d002650:	50400005 	beqzl	v0,9d002668 <_DefaultInterrupt+0x2c>
9d002654:	3c029d00 	lui	v0,0x9d00
9d002658:	7000003f 	sdbbp
9d00265c:	03e00008 	jr	ra
9d002660:	00000000 	nop
9d002664:	3c029d00 	lui	v0,0x9d00
9d002668:	24422684 	addiu	v0,v0,9860
9d00266c:	10400003 	beqz	v0,9d00267c <_DefaultInterrupt+0x40>
9d002670:	00000000 	nop
9d002674:	0040f809 	jalr	v0
9d002678:	00000000 	nop
9d00267c:	03e00008 	jr	ra
9d002680:	00000000 	nop

Disassembly of section .text:

9d002684 <__pic32_software_reset>:
9d002684:	41606000 	di
9d002688:	000000c0 	ehb
9d00268c:	3c03aa99 	lui	v1,0xaa99
9d002690:	3c02bf81 	lui	v0,0xbf81
9d002694:	24636655 	addiu	v1,v1,26197
9d002698:	ac40f230 	sw	zero,-3536(v0)
9d00269c:	ac43f230 	sw	v1,-3536(v0)
9d0026a0:	3c035566 	lui	v1,0x5566
9d0026a4:	346399aa 	ori	v1,v1,0x99aa
9d0026a8:	ac43f230 	sw	v1,-3536(v0)
9d0026ac:	3c02bf81 	lui	v0,0xbf81
9d0026b0:	24030001 	li	v1,1
9d0026b4:	ac43f618 	sw	v1,-2536(v0)
9d0026b8:	3c02bf81 	lui	v0,0xbf81
9d0026bc:	8c42f610 	lw	v0,-2544(v0)
9d0026c0:	0b4009a3 	j	9d00268c <__pic32_software_reset+0x8>
9d0026c4:	00000000 	nop

Disassembly of section .dinit:

9d0026c8 <.dinit>:
9d0026c8:	a0000014 	sb	zero,20(zero)
9d0026cc:	00013880 	sll	a3,at,0x2
9d0026d0:	00000000 	nop
9d0026d4:	a0000004 	sb	zero,4(zero)
9d0026d8:	00000010 	mfhi	zero
9d0026dc:	00000000 	nop
9d0026e0:	a0000000 	sb	zero,0(zero)
9d0026e4:	00000004 	sllv	zero,zero,zero
9d0026e8:	00000001 	movf	zero,zero,$fcc0
9d0026ec:	00000001 	movf	zero,zero,$fcc0
9d0026f0:	00000000 	nop
9d0026f4:	22222222 	addi	v0,s1,8738

Disassembly of section .text:

9d0026f8 <_nmi_handler>:
9d0026f8:	401a6000 	mfc0	k0,c0_status
9d0026fc:	3c1bffbf 	lui	k1,0xffbf
9d002700:	377bffff 	ori	k1,k1,0xffff
9d002704:	035bd024 	and	k0,k0,k1
9d002708:	409a6000 	mtc0	k0,c0_status
9d00270c:	42000018 	eret

Disassembly of section .text._on_reset:

9d002710 <_on_reset>:
9d002710:	03e00008 	jr	ra
9d002714:	00000000 	nop

Disassembly of section .text._on_bootstrap:

9d002718 <_on_bootstrap>:
9d002718:	03e00008 	jr	ra
9d00271c:	00000000 	nop
